target datalayout = "e-m:e-p270:32:32-p271:32:32-p272:64:64-i64:64-i128:128-f80:128-n8:16:32:64-S128"
target triple = "x86_64-pc-linux-gnu"

%struct.SDL_Surface = type { i32, i32, i32, i32, i32, ptr, i32, ptr, i32, i32, ptr, i32, ptr, i32, ptr, i32, %struct.SDL_Rect, %struct.SDL_BlitMap }
%struct.SDL_Rect = type { i32, i32, i32, i32 }
%struct.SDL_BlitMap = type { i32, ptr, ptr, %struct.SDL_BlitInfo, i32, i32 }
%struct.SDL_BlitInfo = type { ptr, ptr, i32, i32, i32, i32, ptr, ptr, i32, i32, i32, i32, ptr, ptr, ptr, ptr, ptr, ptr, i32, i32, i8, i8, i8, i8 }

@SDL_surface_magic = internal global i8 0, align 1

; Function Attrs: nounwind uwtable
define hidden zeroext i1 @SDL_SurfaceValid(ptr noundef %0) #0 {
  %2 = alloca ptr, align 8
  store ptr %0, ptr %2, align 8
  %3 = load ptr, ptr %2, align 8
  %4 = icmp ne ptr %3, null
  br i1 %4, label %5, label %10

5:                                                ; preds = %1
  %6 = load ptr, ptr %2, align 8
  %7 = getelementptr inbounds nuw %struct.SDL_Surface, ptr %6, i32 0, i32 7
  %8 = load ptr, ptr %7, align 8
  %9 = icmp eq ptr %8, @SDL_surface_magic
  br label %10

10:                                               ; preds = %5, %1
  %11 = phi i1 [ false, %1 ], [ %9, %5 ]
  ret i1 %11
}

; Function Attrs: nounwind uwtable
define hidden zeroext i1 @SDL_SurfaceHasRLE_REAL(ptr noundef %0) #0 {
  %2 = alloca i1, align 1
  %3 = alloca ptr, align 8
  store ptr %0, ptr %3, align 8
  %4 = load ptr, ptr %3, align 8
  %5 = call zeroext i1 @SDL_SurfaceValid(ptr noundef %4)
  br i1 %5, label %7, label %6

6:                                                ; preds = %1
  store i1 false, ptr %2, align 1
  br label %17

7:                                                ; preds = %1
  %8 = load ptr, ptr %3, align 8
  %9 = getelementptr inbounds nuw %struct.SDL_Surface, ptr %8, i32 0, i32 17
  %10 = getelementptr inbounds nuw %struct.SDL_BlitMap, ptr %9, i32 0, i32 3
  %11 = getelementptr inbounds nuw %struct.SDL_BlitInfo, ptr %10, i32 0, i32 18
  %12 = load i32, ptr %11, align 8
  %13 = and i32 %12, 4096
  %14 = icmp ne i32 %13, 0
  br i1 %14, label %16, label %15

15:                                               ; preds = %7
  store i1 false, ptr %2, align 1
  br label %17

16:                                               ; preds = %7
  store i1 true, ptr %2, align 1
  br label %17

17:                                               ; preds = %16, %15, %6
  %18 = load i1, ptr %2, align 1
  ret i1 %18
}